target datalayout = "e-m:e-p270:32:32-p271:32:32-p272:64:64-i64:64-i128:128-f80:128-n8:16:32:64-S128"
target triple = "x86_64-unknown-linux-gnu"

%"class.pugi::xml_node" = type { ptr }
%"struct.pugi::xml_node_struct" = type { i64, ptr, ptr, ptr, ptr, ptr, ptr, ptr }
%"class.pugi::xml_named_node_iterator" = type { %"class.pugi::xml_node", %"class.pugi::xml_node", ptr }

@_ZN4pugi8xml_nodeC1Ev = unnamed_addr alias void (ptr), ptr @_ZN4pugi8xml_nodeC2Ev
@_ZN4pugi8xml_nodeC1EPNS_15xml_node_structE = unnamed_addr alias void (ptr, ptr), ptr @_ZN4pugi8xml_nodeC2EPNS_15xml_node_structE

; Function Attrs: mustprogress nounwind uwtable
define internal noundef zeroext i1 @_ZN4pugi4impl12_GLOBAL__N_18strequalEPKcS3_(ptr noundef %src, ptr noundef %dst) #0 {
entry:
  %src.addr = alloca ptr, align 8
  %dst.addr = alloca ptr, align 8
  store ptr %src, ptr %src.addr, align 8
  store ptr %dst, ptr %dst.addr, align 8
  %0 = load ptr, ptr %src.addr, align 8
  %1 = load ptr, ptr %dst.addr, align 8
  %call = call i32 @strcmp(ptr noundef %0, ptr noundef %1) #15
  %cmp = icmp eq i32 %call, 0
  ret i1 %cmp
}

; Function Attrs: mustprogress uwtable
define ptr @_ZNK4pugi8xml_node12next_siblingEPKc(ptr noundef nonnull align 8 dereferenceable(8) %this, ptr noundef %name_) #2 align 2 {
entry:
  %retval = alloca %"class.pugi::xml_node", align 8
  %this.addr = alloca ptr, align 8
  %name_.addr = alloca ptr, align 8
  %i = alloca ptr, align 8
  %iname = alloca ptr, align 8
  store ptr %this, ptr %this.addr, align 8
  store ptr %name_, ptr %name_.addr, align 8
  %this1 = load ptr, ptr %this.addr, align 8
  %_root = getelementptr inbounds %"class.pugi::xml_node", ptr %this1, i32 0, i32 0
  %0 = load ptr, ptr %_root, align 8
  %tobool = icmp ne ptr %0, null
  br i1 %tobool, label %if.end, label %if.then

if.then:                                          ; preds = %entry
  call void @_ZN4pugi8xml_nodeC1Ev(ptr noundef nonnull align 8 dereferenceable(8) %retval)
  br label %return

if.end:                                           ; preds = %entry
  %_root2 = getelementptr inbounds %"class.pugi::xml_node", ptr %this1, i32 0, i32 0
  %1 = load ptr, ptr %_root2, align 8
  %next_sibling = getelementptr inbounds %"struct.pugi::xml_node_struct", ptr %1, i32 0, i32 6
  %2 = load ptr, ptr %next_sibling, align 8
  store ptr %2, ptr %i, align 8
  br label %for.cond

for.cond:                                         ; preds = %for.inc, %if.end
  %3 = load ptr, ptr %i, align 8
  %tobool3 = icmp ne ptr %3, null
  br i1 %tobool3, label %for.body, label %for.end

for.body:                                         ; preds = %for.cond
  %4 = load ptr, ptr %i, align 8
  %name = getelementptr inbounds %"struct.pugi::xml_node_struct", ptr %4, i32 0, i32 1
  %5 = load ptr, ptr %name, align 8
  store ptr %5, ptr %iname, align 8
  %6 = load ptr, ptr %iname, align 8
  %tobool4 = icmp ne ptr %6, null
  br i1 %tobool4, label %land.lhs.true, label %if.end6

land.lhs.true:                                    ; preds = %for.body
  %7 = load ptr, ptr %name_.addr, align 8
  %8 = load ptr, ptr %iname, align 8
  %call = call noundef zeroext i1 @_ZN4pugi4impl12_GLOBAL__N_18strequalEPKcS3_(ptr noundef %7, ptr noundef %8)
  br i1 %call, label %if.then5, label %if.end6

if.then5:                                         ; preds = %land.lhs.true
  %9 = load ptr, ptr %i, align 8
  call void @_ZN4pugi8xml_nodeC1EPNS_15xml_node_structE(ptr noundef nonnull align 8 dereferenceable(8) %retval, ptr noundef %9)
  br label %return

if.end6:                                          ; preds = %land.lhs.true, %for.body
  br label %for.inc

for.inc:                                          ; preds = %if.end6
  %10 = load ptr, ptr %i, align 8
  %next_sibling7 = getelementptr inbounds %"struct.pugi::xml_node_struct", ptr %10, i32 0, i32 6
  %11 = load ptr, ptr %next_sibling7, align 8
  store ptr %11, ptr %i, align 8
  br label %for.cond, !llvm.loop !7

for.end:                                          ; preds = %for.cond
  call void @_ZN4pugi8xml_nodeC1Ev(ptr noundef nonnull align 8 dereferenceable(8) %retval)
  br label %return

return:                                           ; preds = %for.end, %if.then5, %if.then
  %coerce.dive = getelementptr inbounds %"class.pugi::xml_node", ptr %retval, i32 0, i32 0
  %12 = load ptr, ptr %coerce.dive, align 8
  ret ptr %12
}

; Function Attrs: mustprogress uwtable
define noundef nonnull align 8 dereferenceable(24) ptr @_ZN4pugi23xml_named_node_iteratorppEv(ptr noundef nonnull align 8 dereferenceable(24) %this) #2 align 2 {
entry:
  %this.addr = alloca ptr, align 8
  %ref.tmp = alloca %"class.pugi::xml_node", align 8
  store ptr %this, ptr %this.addr, align 8
  %this1 = load ptr, ptr %this.addr, align 8
  %_wrap = getelementptr inbounds %"class.pugi::xml_named_node_iterator", ptr %this1, i32 0, i32 0
  %_name = getelementptr inbounds %"class.pugi::xml_named_node_iterator", ptr %this1, i32 0, i32 2
  %0 = load ptr, ptr %_name, align 8
  %call = call ptr @_ZNK4pugi8xml_node12next_siblingEPKc(ptr noundef nonnull align 8 dereferenceable(8) %_wrap, ptr noundef %0)
  %coerce.dive = getelementptr inbounds %"class.pugi::xml_node", ptr %ref.tmp, i32 0, i32 0
  store ptr %call, ptr %coerce.dive, align 8
  %_wrap2 = getelementptr inbounds %"class.pugi::xml_named_node_iterator", ptr %this1, i32 0, i32 0
  call void @llvm.memcpy.p0.p0.i64(ptr align 8 %_wrap2, ptr align 8 %ref.tmp, i64 8, i1 false)
  ret ptr %this1
}

; Function Attrs: mustprogress uwtable
define void @_ZN4pugi23xml_named_node_iteratorppEi(ptr noalias sret(%"class.pugi::xml_named_node_iterator") align 8 %agg.result, ptr noundef nonnull align 8 dereferenceable(24) %this, i32 noundef %0) #2 align 2 {
entry:
  %this.addr = alloca ptr, align 8
  %.addr = alloca i32, align 4
  store ptr %this, ptr %this.addr, align 8
  store i32 %0, ptr %.addr, align 4
  %this1 = load ptr, ptr %this.addr, align 8
  call void @llvm.memcpy.p0.p0.i64(ptr align 8 %agg.result, ptr align 8 %this1, i64 24, i1 false)
  %call = call noundef nonnull align 8 dereferenceable(24) ptr @_ZN4pugi23xml_named_node_iteratorppEv(ptr noundef nonnull align 8 dereferenceable(24) %this1)
  ret void
}