; Function Attrs: mustprogress uwtable
define void @_ZN4pugi23xml_named_node_iteratorppEi(ptr noalias nocapture writeonly sret(%"class.pugi::xml_named_node_iterator") align 8 %agg.result, ptr nocapture noundef nonnull align 8 dereferenceable(24) %this, i32 noundef %0) local_unnamed_addr #6 align 2 {
entry:
  %retval.i.i = alloca %"class.pugi::xml_node", align 8
  tail call void @llvm.memcpy.p0.p0.i64(ptr noundef nonnull align 8 dereferenceable(24) %agg.result, ptr noundef nonnull align 8 dereferenceable(24) %this, i64 24, i1 false)
  %_name.i = getelementptr inbounds i8, ptr %this, i64 16
  %1 = load ptr, ptr %_name.i, align 8
  call void @llvm.lifetime.start.p0(i64 8, ptr nonnull %retval.i.i)
  %2 = load ptr, ptr %this, align 8
  %tobool.not.i.i = icmp eq ptr %2, null
  br i1 %tobool.not.i.i, label %if.then.i.i, label %for.cond.preheader.i.i

for.cond.preheader.i.i:                           ; preds = %entry
  %i.0.in7.i.i = getelementptr inbounds i8, ptr %2, i64 48
  %i.08.i.i = load ptr, ptr %i.0.in7.i.i, align 8
  %tobool3.not9.i.i = icmp eq ptr %i.08.i.i, null
  br i1 %tobool3.not9.i.i, label %for.end.i.i, label %for.body.i.i

if.then.i.i:                                      ; preds = %entry
  call void @_ZN4pugi8xml_nodeC1Ev(ptr noundef nonnull align 8 dereferenceable(8) %retval.i.i)
  br label %_ZN4pugi23xml_named_node_iteratorppEv.exit

for.body.i.i:                                     ; preds = %for.cond.preheader.i.i, %for.inc.i.i
  %i.010.i.i = phi ptr [ %i.0.i.i, %for.inc.i.i ], [ %i.08.i.i, %for.cond.preheader.i.i ]
  %name.i.i = getelementptr inbounds i8, ptr %i.010.i.i, i64 8
  %3 = load ptr, ptr %name.i.i, align 8
  %tobool4.not.i.i = icmp eq ptr %3, null
  br i1 %tobool4.not.i.i, label %for.inc.i.i, label %land.lhs.true.i.i

land.lhs.true.i.i:                                ; preds = %for.body.i.i
  %call.i.i.i = tail call i32 @strcmp(ptr noundef nonnull dereferenceable(1) %1, ptr noundef nonnull dereferenceable(1) %3) #43
  %cmp.i.i.i = icmp eq i32 %call.i.i.i, 0
  br i1 %cmp.i.i.i, label %if.then5.i.i, label %for.inc.i.i

if.then5.i.i:                                     ; preds = %land.lhs.true.i.i
  call void @_ZN4pugi8xml_nodeC1EPNS_15xml_node_structE(ptr noundef nonnull align 8 dereferenceable(8) %retval.i.i, ptr noundef nonnull %i.010.i.i)
  br label %_ZN4pugi23xml_named_node_iteratorppEv.exit

for.inc.i.i:                                      ; preds = %land.lhs.true.i.i, %for.body.i.i
  %i.0.in.i.i = getelementptr inbounds i8, ptr %i.010.i.i, i64 48
  %i.0.i.i = load ptr, ptr %i.0.in.i.i, align 8
  %tobool3.not.i.i = icmp eq ptr %i.0.i.i, null
  br i1 %tobool3.not.i.i, label %for.end.i.i, label %for.body.i.i, !llvm.loop !10

for.end.i.i:                                      ; preds = %for.inc.i.i, %for.cond.preheader.i.i
  call void @_ZN4pugi8xml_nodeC1Ev(ptr noundef nonnull align 8 dereferenceable(8) %retval.i.i)
  br label %_ZN4pugi23xml_named_node_iteratorppEv.exit

_ZN4pugi23xml_named_node_iteratorppEv.exit:       ; preds = %if.then.i.i, %if.then5.i.i, %for.end.i.i
  %4 = load ptr, ptr %retval.i.i, align 8
  call void @llvm.lifetime.end.p0(i64 8, ptr nonnull %retval.i.i)
  store ptr %4, ptr %this, align 8
  ret void
}